target datalayout = "e-m:e-p270:32:32-p271:32:32-p272:64:64-i64:64-i128:128-f80:128-n8:16:32:64-S128"
target triple = "x86_64-pc-linux-gnu"

@libctx = internal global ptr null, align 8
@digests_collection = internal global ptr null, align 8
@cipher_collection = internal global ptr null, align 8
@kdf_collection = internal global ptr null, align 8
@mac_collection = internal global ptr null, align 8
@kem_collection = internal global ptr null, align 8
@rand_collection = internal global ptr null, align 8
@asym_ciphers_collection = internal global ptr null, align 8
@signature_collection = internal global ptr null, align 8
@keyexch_collection = internal global ptr null, align 8
@keymgmt_collection = internal global ptr null, align 8

; Function Attrs: inlinehint nounwind uwtable
define internal ptr @sk_EVP_ASYM_CIPHER_new(ptr noundef %0) #3 {
  %2 = alloca ptr, align 8
  store ptr %0, ptr %2, align 8, !tbaa !74
  %3 = load ptr, ptr %2, align 8, !tbaa !74
  %4 = call ptr @OPENSSL_sk_new(ptr noundef %3)
  ret ptr %4
}

; Function Attrs: inlinehint nounwind uwtable
define internal ptr @sk_EVP_SIGNATURE_new(ptr noundef %0) #3 {
  %2 = alloca ptr, align 8
  store ptr %0, ptr %2, align 8, !tbaa !74
  %3 = load ptr, ptr %2, align 8, !tbaa !74
  %4 = call ptr @OPENSSL_sk_new(ptr noundef %3)
  ret ptr %4
}

; Function Attrs: inlinehint nounwind uwtable
define internal ptr @sk_EVP_KEYMGMT_new(ptr noundef %0) #3 {
  %2 = alloca ptr, align 8
  store ptr %0, ptr %2, align 8, !tbaa !74
  %3 = load ptr, ptr %2, align 8, !tbaa !74
  %4 = call ptr @OPENSSL_sk_new(ptr noundef %3)
  ret ptr %4
}

; Function Attrs: inlinehint nounwind uwtable
define internal ptr @sk_EVP_MAC_new(ptr noundef %0) #3 {
  %2 = alloca ptr, align 8
  store ptr %0, ptr %2, align 8, !tbaa !74
  %3 = load ptr, ptr %2, align 8, !tbaa !74
  %4 = call ptr @OPENSSL_sk_new(ptr noundef %3)
  ret ptr %4
}

; Function Attrs: inlinehint nounwind uwtable
define internal ptr @sk_EVP_RAND_new(ptr noundef %0) #3 {
  %2 = alloca ptr, align 8
  store ptr %0, ptr %2, align 8, !tbaa !74
  %3 = load ptr, ptr %2, align 8, !tbaa !74
  %4 = call ptr @OPENSSL_sk_new(ptr noundef %3)
  ret ptr %4
}

; Function Attrs: inlinehint nounwind uwtable
define internal ptr @sk_EVP_KEYEXCH_new(ptr noundef %0) #3 {
  %2 = alloca ptr, align 8
  store ptr %0, ptr %2, align 8, !tbaa !74
  %3 = load ptr, ptr %2, align 8, !tbaa !74
  %4 = call ptr @OPENSSL_sk_new(ptr noundef %3)
  ret ptr %4
}

; Function Attrs: inlinehint nounwind uwtable
define internal ptr @sk_EVP_KEM_new(ptr noundef %0) #3 {
  %2 = alloca ptr, align 8
  store ptr %0, ptr %2, align 8, !tbaa !74
  %3 = load ptr, ptr %2, align 8, !tbaa !74
  %4 = call ptr @OPENSSL_sk_new(ptr noundef %3)
  ret ptr %4
}

; Function Attrs: inlinehint nounwind uwtable
define internal ptr @sk_EVP_CIPHER_new(ptr noundef %0) #3 {
  %2 = alloca ptr, align 8
  store ptr %0, ptr %2, align 8, !tbaa !74
  %3 = load ptr, ptr %2, align 8, !tbaa !74
  %4 = call ptr @OPENSSL_sk_new(ptr noundef %3)
  ret ptr %4
}

; Function Attrs: inlinehint nounwind uwtable
define internal ptr @sk_EVP_KDF_new(ptr noundef %0) #3 {
  %2 = alloca ptr, align 8
  store ptr %0, ptr %2, align 8, !tbaa !74
  %3 = load ptr, ptr %2, align 8, !tbaa !74
  %4 = call ptr @OPENSSL_sk_new(ptr noundef %3)
  ret ptr %4
}

; Function Attrs: inlinehint nounwind uwtable
define internal ptr @sk_EVP_MD_new(ptr noundef %0) #3 {
  %2 = alloca ptr, align 8
  store ptr %0, ptr %2, align 8, !tbaa !74
  %3 = load ptr, ptr %2, align 8, !tbaa !74
  %4 = call ptr @OPENSSL_sk_new(ptr noundef %3)
  ret ptr %4
}

; Function Attrs: nounwind uwtable
define internal void @init_asym_ciphers(ptr noundef %0) #0 {
  %2 = alloca ptr, align 8
  store ptr %0, ptr %2, align 8, !tbaa !11
  %3 = call ptr @sk_EVP_ASYM_CIPHER_new(ptr noundef @cmp_EVP_ASYM_CIPHER)
  store ptr %3, ptr @asym_ciphers_collection, align 8, !tbaa !31
  %4 = load ptr, ptr %2, align 8, !tbaa !11
  %5 = load ptr, ptr @asym_ciphers_collection, align 8, !tbaa !31
  call void @EVP_ASYM_CIPHER_do_all_provided(ptr noundef %4, ptr noundef @collect_EVP_ASYM_CIPHER, ptr noundef %5)
  ret void
}

; Function Attrs: nounwind uwtable
define internal void @init_signature(ptr noundef %0) #0 {
  %2 = alloca ptr, align 8
  store ptr %0, ptr %2, align 8, !tbaa !11
  %3 = call ptr @sk_EVP_SIGNATURE_new(ptr noundef @cmp_EVP_SIGNATURE)
  store ptr %3, ptr @signature_collection, align 8, !tbaa !29
  %4 = load ptr, ptr %2, align 8, !tbaa !11
  %5 = load ptr, ptr @signature_collection, align 8, !tbaa !29
  call void @EVP_SIGNATURE_do_all_provided(ptr noundef %4, ptr noundef @collect_EVP_SIGNATURE, ptr noundef %5)
  ret void
}

; Function Attrs: nounwind uwtable
define internal void @init_keymgmt(ptr noundef %0) #0 {
  %2 = alloca ptr, align 8
  store ptr %0, ptr %2, align 8, !tbaa !11
  %3 = call ptr @sk_EVP_KEYMGMT_new(ptr noundef @cmp_EVP_KEYMGMT)
  store ptr %3, ptr @keymgmt_collection, align 8, !tbaa !27
  %4 = load ptr, ptr %2, align 8, !tbaa !11
  %5 = load ptr, ptr @keymgmt_collection, align 8, !tbaa !27
  call void @EVP_KEYMGMT_do_all_provided(ptr noundef %4, ptr noundef @collect_EVP_KEYMGMT, ptr noundef %5)
  ret void
}

; Function Attrs: nounwind uwtable
define internal void @init_mac(ptr noundef %0) #0 {
  %2 = alloca ptr, align 8
  store ptr %0, ptr %2, align 8, !tbaa !11
  %3 = call ptr @sk_EVP_MAC_new(ptr noundef @cmp_EVP_MAC)
  store ptr %3, ptr @mac_collection, align 8, !tbaa !25
  %4 = load ptr, ptr %2, align 8, !tbaa !11
  %5 = load ptr, ptr @mac_collection, align 8, !tbaa !25
  call void @EVP_MAC_do_all_provided(ptr noundef %4, ptr noundef @collect_EVP_MAC, ptr noundef %5)
  ret void
}

; Function Attrs: nounwind uwtable
define internal void @init_rand(ptr noundef %0) #0 {
  %2 = alloca ptr, align 8
  store ptr %0, ptr %2, align 8, !tbaa !11
  %3 = call ptr @sk_EVP_RAND_new(ptr noundef @cmp_EVP_RAND)
  store ptr %3, ptr @rand_collection, align 8, !tbaa !23
  %4 = load ptr, ptr %2, align 8, !tbaa !11
  %5 = load ptr, ptr @rand_collection, align 8, !tbaa !23
  call void @EVP_RAND_do_all_provided(ptr noundef %4, ptr noundef @collect_EVP_RAND, ptr noundef %5)
  ret void
}

; Function Attrs: nounwind uwtable
define internal void @init_keyexch(ptr noundef %0) #0 {
  %2 = alloca ptr, align 8
  store ptr %0, ptr %2, align 8, !tbaa !11
  %3 = call ptr @sk_EVP_KEYEXCH_new(ptr noundef @cmp_EVP_KEYEXCH)
  store ptr %3, ptr @keyexch_collection, align 8, !tbaa !21
  %4 = load ptr, ptr %2, align 8, !tbaa !11
  %5 = load ptr, ptr @keyexch_collection, align 8, !tbaa !21
  call void @EVP_KEYEXCH_do_all_provided(ptr noundef %4, ptr noundef @collect_EVP_KEYEXCH, ptr noundef %5)
  ret void
}

; Function Attrs: nounwind uwtable
define internal void @init_kem(ptr noundef %0) #0 {
  %2 = alloca ptr, align 8
  store ptr %0, ptr %2, align 8, !tbaa !11
  %3 = call ptr @sk_EVP_KEM_new(ptr noundef @cmp_EVP_KEM)
  store ptr %3, ptr @kem_collection, align 8, !tbaa !19
  %4 = load ptr, ptr %2, align 8, !tbaa !11
  %5 = load ptr, ptr @kem_collection, align 8, !tbaa !19
  call void @EVP_KEM_do_all_provided(ptr noundef %4, ptr noundef @collect_EVP_KEM, ptr noundef %5)
  ret void
}

; Function Attrs: nounwind uwtable
define internal void @init_cipher(ptr noundef %0) #0 {
  %2 = alloca ptr, align 8
  store ptr %0, ptr %2, align 8, !tbaa !11
  %3 = call ptr @sk_EVP_CIPHER_new(ptr noundef @cmp_EVP_CIPHER)
  store ptr %3, ptr @cipher_collection, align 8, !tbaa !17
  %4 = load ptr, ptr %2, align 8, !tbaa !11
  %5 = load ptr, ptr @cipher_collection, align 8, !tbaa !17
  call void @EVP_CIPHER_do_all_provided(ptr noundef %4, ptr noundef @collect_EVP_CIPHER, ptr noundef %5)
  ret void
}

; Function Attrs: nounwind uwtable
define internal void @init_kdf(ptr noundef %0) #0 {
  %2 = alloca ptr, align 8
  store ptr %0, ptr %2, align 8, !tbaa !11
  %3 = call ptr @sk_EVP_KDF_new(ptr noundef @cmp_EVP_KDF)
  store ptr %3, ptr @kdf_collection, align 8, !tbaa !15
  %4 = load ptr, ptr %2, align 8, !tbaa !11
  %5 = load ptr, ptr @kdf_collection, align 8, !tbaa !15
  call void @EVP_KDF_do_all_provided(ptr noundef %4, ptr noundef @collect_EVP_KDF, ptr noundef %5)
  ret void
}

; Function Attrs: nounwind uwtable
define internal void @init_digests(ptr noundef %0) #0 {
  %2 = alloca ptr, align 8
  store ptr %0, ptr %2, align 8, !tbaa !11
  %3 = call ptr @sk_EVP_MD_new(ptr noundef @cmp_EVP_MD)
  store ptr %3, ptr @digests_collection, align 8, !tbaa !13
  %4 = load ptr, ptr %2, align 8, !tbaa !11
  %5 = load ptr, ptr @digests_collection, align 8, !tbaa !13
  call void @EVP_MD_do_all_provided(ptr noundef %4, ptr noundef @collect_EVP_MD, ptr noundef %5)
  ret void
}

; Function Attrs: nounwind uwtable
define dso_local i32 @FuzzerInitialize(ptr noundef %0, ptr noundef %1) #0 {
  %3 = alloca i32, align 4
  %4 = alloca ptr, align 8
  %5 = alloca ptr, align 8
  store ptr %0, ptr %4, align 8, !tbaa !4
  store ptr %1, ptr %5, align 8, !tbaa !9
  %6 = call ptr @OSSL_LIB_CTX_new()
  store ptr %6, ptr @libctx, align 8, !tbaa !11
  %7 = load ptr, ptr @libctx, align 8, !tbaa !11
  %8 = icmp eq ptr %7, null
  br i1 %8, label %9, label %10

9:                                                ; preds = %2
  store i32 0, ptr %3, align 4
  br label %21

10:                                               ; preds = %2
  %11 = load ptr, ptr @libctx, align 8, !tbaa !11
  call void @init_digests(ptr noundef %11)
  %12 = load ptr, ptr @libctx, align 8, !tbaa !11
  call void @init_kdf(ptr noundef %12)
  %13 = load ptr, ptr @libctx, align 8, !tbaa !11
  call void @init_cipher(ptr noundef %13)
  %14 = load ptr, ptr @libctx, align 8, !tbaa !11
  call void @init_kem(ptr noundef %14)
  %15 = load ptr, ptr @libctx, align 8, !tbaa !11
  call void @init_keyexch(ptr noundef %15)
  %16 = load ptr, ptr @libctx, align 8, !tbaa !11
  call void @init_rand(ptr noundef %16)
  %17 = load ptr, ptr @libctx, align 8, !tbaa !11
  call void @init_mac(ptr noundef %17)
  %18 = load ptr, ptr @libctx, align 8, !tbaa !11
  call void @init_keymgmt(ptr noundef %18)
  %19 = load ptr, ptr @libctx, align 8, !tbaa !11
  call void @init_signature(ptr noundef %19)
  %20 = load ptr, ptr @libctx, align 8, !tbaa !11
  call void @init_asym_ciphers(ptr noundef %20)
  store i32 1, ptr %3, align 4
  br label %21

21:                                               ; preds = %10, %9
  %22 = load i32, ptr %3, align 4
  ret i32 %22
}