; Function Attrs: nounwind uwtable
define dso_local range(i32 0, 2) i32 @FuzzerInitialize(ptr noundef readnone captures(none) %0, ptr noundef readnone captures(none) %1) local_unnamed_addr #0 {
  %3 = tail call ptr @OSSL_LIB_CTX_new() #6
  store ptr %3, ptr @libctx, align 8, !tbaa !4
  %4 = icmp eq ptr %3, null
  br i1 %4, label %25, label %5

5:                                                ; preds = %2
  %6 = tail call ptr @OPENSSL_sk_new(ptr noundef nonnull @cmp_EVP_MD) #6
  store ptr %6, ptr @digests_collection, align 8, !tbaa !9
  tail call void @EVP_MD_do_all_provided(ptr noundef nonnull %3, ptr noundef nonnull @collect_EVP_MD, ptr noundef %6) #6
  %7 = load ptr, ptr @libctx, align 8, !tbaa !4
  %8 = tail call ptr @OPENSSL_sk_new(ptr noundef nonnull @cmp_EVP_KDF) #6
  store ptr %8, ptr @kdf_collection, align 8, !tbaa !11
  tail call void @EVP_KDF_do_all_provided(ptr noundef %7, ptr noundef nonnull @collect_EVP_KDF, ptr noundef %8) #6
  %9 = load ptr, ptr @libctx, align 8, !tbaa !4
  %10 = tail call ptr @OPENSSL_sk_new(ptr noundef nonnull @cmp_EVP_CIPHER) #6
  store ptr %10, ptr @cipher_collection, align 8, !tbaa !13
  tail call void @EVP_CIPHER_do_all_provided(ptr noundef %9, ptr noundef nonnull @collect_EVP_CIPHER, ptr noundef %10) #6
  %11 = load ptr, ptr @libctx, align 8, !tbaa !4
  %12 = tail call ptr @OPENSSL_sk_new(ptr noundef nonnull @cmp_EVP_KEM) #6
  store ptr %12, ptr @kem_collection, align 8, !tbaa !15
  tail call void @EVP_KEM_do_all_provided(ptr noundef %11, ptr noundef nonnull @collect_EVP_KEM, ptr noundef %12) #6
  %13 = load ptr, ptr @libctx, align 8, !tbaa !4
  %14 = tail call ptr @OPENSSL_sk_new(ptr noundef nonnull @cmp_EVP_KEYEXCH) #6
  store ptr %14, ptr @keyexch_collection, align 8, !tbaa !17
  tail call void @EVP_KEYEXCH_do_all_provided(ptr noundef %13, ptr noundef nonnull @collect_EVP_KEYEXCH, ptr noundef %14) #6
  %15 = load ptr, ptr @libctx, align 8, !tbaa !4
  %16 = tail call ptr @OPENSSL_sk_new(ptr noundef nonnull @cmp_EVP_RAND) #6
  store ptr %16, ptr @rand_collection, align 8, !tbaa !19
  tail call void @EVP_RAND_do_all_provided(ptr noundef %15, ptr noundef nonnull @collect_EVP_RAND, ptr noundef %16) #6
  %17 = load ptr, ptr @libctx, align 8, !tbaa !4
  %18 = tail call ptr @OPENSSL_sk_new(ptr noundef nonnull @cmp_EVP_MAC) #6
  store ptr %18, ptr @mac_collection, align 8, !tbaa !21
  tail call void @EVP_MAC_do_all_provided(ptr noundef %17, ptr noundef nonnull @collect_EVP_MAC, ptr noundef %18) #6
  %19 = load ptr, ptr @libctx, align 8, !tbaa !4
  %20 = tail call ptr @OPENSSL_sk_new(ptr noundef nonnull @cmp_EVP_KEYMGMT) #6
  store ptr %20, ptr @keymgmt_collection, align 8, !tbaa !23
  tail call void @EVP_KEYMGMT_do_all_provided(ptr noundef %19, ptr noundef nonnull @collect_EVP_KEYMGMT, ptr noundef %20) #6
  %21 = load ptr, ptr @libctx, align 8, !tbaa !4
  %22 = tail call ptr @OPENSSL_sk_new(ptr noundef nonnull @cmp_EVP_SIGNATURE) #6
  store ptr %22, ptr @signature_collection, align 8, !tbaa !25
  tail call void @EVP_SIGNATURE_do_all_provided(ptr noundef %21, ptr noundef nonnull @collect_EVP_SIGNATURE, ptr noundef %22) #6
  %23 = load ptr, ptr @libctx, align 8, !tbaa !4
  %24 = tail call ptr @OPENSSL_sk_new(ptr noundef nonnull @cmp_EVP_ASYM_CIPHER) #6
  store ptr %24, ptr @asym_ciphers_collection, align 8, !tbaa !27
  tail call void @EVP_ASYM_CIPHER_do_all_provided(ptr noundef %23, ptr noundef nonnull @collect_EVP_ASYM_CIPHER, ptr noundef %24) #6
  br label %25

25:                                               ; preds = %2, %5
  %.0 = phi i32 [ 1, %5 ], [ 0, %2 ]
  ret i32 %.0
}